; Function Attrs: nounwind uwtable
define ptr @l_Array_mapMUnsafe_map___at_Lean_Elab_Mutual_withCommonTelescope_go___spec__1(ptr noundef %0, i64 noundef %1, i64 noundef %2, ptr noundef %3) local_unnamed_addr #0 {
  %.not49 = icmp ult i64 %2, %1
  br i1 %.not49, label %.lr.ph, label %._crit_edge

.lr.ph:                                           ; preds = %4, %65
  %.02251 = phi i64 [ %49, %65 ], [ %2, %4 ]
  %.02450 = phi ptr [ %.0.i.i36, %65 ], [ %3, %4 ]
  %5 = getelementptr inbounds nuw i8, ptr %.02450, i64 24
  %6 = getelementptr inbounds nuw [0 x ptr], ptr %5, i64 0, i64 %.02251
  %7 = load ptr, ptr %6, align 8, !tbaa !4
  %8 = ptrtoint ptr %7 to i64
  %9 = and i64 %8, 1
  %.not.i30 = icmp eq i64 %9, 0
  br i1 %.not.i30, label %10, label %lean_array_uget.exit

10:                                               ; preds = %.lr.ph
  %.val.i.i = load i32, ptr %7, align 4, !tbaa !8
  %11 = icmp sgt i32 %.val.i.i, 0
  br i1 %11, label %12, label %14, !prof !11

12:                                               ; preds = %10
  %13 = add nuw i32 %.val.i.i, 1
  store i32 %13, ptr %7, align 4, !tbaa !8
  br label %lean_array_uget.exit

14:                                               ; preds = %10
  %.not.i.i = icmp eq i32 %.val.i.i, 0
  br i1 %.not.i.i, label %lean_array_uget.exit, label %15

15:                                               ; preds = %14
  tail call void @lean_inc_ref_cold(ptr noundef nonnull %7) #4
  br label %lean_array_uget.exit

lean_array_uget.exit:                             ; preds = %.lr.ph, %12, %14, %15
  %.val.i.i31 = load i32, ptr %.02450, align 4, !tbaa !8
  %16 = icmp eq i32 %.val.i.i31, 1
  br i1 %16, label %lean_ensure_exclusive_array.exit.i, label %17

17:                                               ; preds = %lean_array_uget.exit
  %18 = tail call ptr @lean_copy_expand_array(ptr noundef nonnull %.02450, i1 noundef zeroext false) #4
  br label %lean_ensure_exclusive_array.exit.i

lean_ensure_exclusive_array.exit.i:               ; preds = %17, %lean_array_uget.exit
  %.0.i.i = phi ptr [ %18, %17 ], [ %.02450, %lean_array_uget.exit ]
  %19 = getelementptr inbounds nuw i8, ptr %.0.i.i, i64 24
  %20 = getelementptr inbounds nuw ptr, ptr %19, i64 %.02251
  %21 = load ptr, ptr %20, align 8, !tbaa !4
  %22 = ptrtoint ptr %21 to i64
  %23 = and i64 %22, 1
  %.not.i32 = icmp eq i64 %23, 0
  br i1 %.not.i32, label %24, label %lean_array_uset.exit

24:                                               ; preds = %lean_ensure_exclusive_array.exit.i
  %25 = load i32, ptr %21, align 4, !tbaa !8
  %26 = icmp sgt i32 %25, 1
  br i1 %26, label %27, label %29, !prof !11

27:                                               ; preds = %24
  %28 = add nsw i32 %25, -1
  store i32 %28, ptr %21, align 4, !tbaa !8
  br label %lean_array_uset.exit

29:                                               ; preds = %24
  %.not.i.i33 = icmp eq i32 %25, 0
  br i1 %.not.i.i33, label %lean_array_uset.exit, label %30

30:                                               ; preds = %29
  tail call void @lean_dec_ref_cold(ptr noundef nonnull %21) #4
  br label %lean_array_uset.exit

lean_array_uset.exit:                             ; preds = %lean_ensure_exclusive_array.exit.i, %27, %29, %30
  store ptr inttoptr (i64 1 to ptr), ptr %20, align 8, !tbaa !4
  %31 = tail call ptr @l_Lean_Expr_bindingBody_x21(ptr noundef %7) #4
  br i1 %.not.i30, label %32, label %lean_dec.exit

32:                                               ; preds = %lean_array_uset.exit
  %33 = load i32, ptr %7, align 4, !tbaa !8
  %34 = icmp sgt i32 %33, 1
  br i1 %34, label %35, label %37, !prof !11

35:                                               ; preds = %32
  %36 = add nsw i32 %33, -1
  store i32 %36, ptr %7, align 4, !tbaa !8
  br label %lean_dec.exit

37:                                               ; preds = %32
  %.not.i28 = icmp eq i32 %33, 0
  br i1 %.not.i28, label %lean_dec.exit, label %38

38:                                               ; preds = %37
  tail call void @lean_dec_ref_cold(ptr noundef nonnull %7) #4
  br label %lean_dec.exit

lean_dec.exit:                                    ; preds = %38, %37, %35, %lean_array_uset.exit
  %39 = tail call ptr @lean_expr_instantiate1(ptr noundef %31, ptr noundef %0) #4
  %40 = ptrtoint ptr %31 to i64
  %41 = and i64 %40, 1
  %.not48 = icmp eq i64 %41, 0
  br i1 %.not48, label %42, label %lean_dec.exit27

42:                                               ; preds = %lean_dec.exit
  %43 = load i32, ptr %31, align 4, !tbaa !8
  %44 = icmp sgt i32 %43, 1
  br i1 %44, label %45, label %47, !prof !11

45:                                               ; preds = %42
  %46 = add nsw i32 %43, -1
  store i32 %46, ptr %31, align 4, !tbaa !8
  br label %lean_dec.exit27

47:                                               ; preds = %42
  %.not.i = icmp eq i32 %43, 0
  br i1 %.not.i, label %lean_dec.exit27, label %48

48:                                               ; preds = %47
  tail call void @lean_dec_ref_cold(ptr noundef nonnull %31) #4
  br label %lean_dec.exit27

lean_dec.exit27:                                  ; preds = %48, %47, %45, %lean_dec.exit
  %49 = add nuw i64 %.02251, 1
  %.val.i.i34 = load i32, ptr %.0.i.i, align 4, !tbaa !8
  %50 = icmp eq i32 %.val.i.i34, 1
  br i1 %50, label %lean_ensure_exclusive_array.exit.i35, label %51

51:                                               ; preds = %lean_dec.exit27
  %52 = tail call ptr @lean_copy_expand_array(ptr noundef nonnull %.0.i.i, i1 noundef zeroext false) #4
  br label %lean_ensure_exclusive_array.exit.i35

lean_ensure_exclusive_array.exit.i35:             ; preds = %51, %lean_dec.exit27
  %.0.i.i36 = phi ptr [ %52, %51 ], [ %.0.i.i, %lean_dec.exit27 ]
  %53 = getelementptr inbounds nuw i8, ptr %.0.i.i36, i64 24
  %54 = getelementptr inbounds nuw ptr, ptr %53, i64 %.02251
  %55 = load ptr, ptr %54, align 8, !tbaa !4
  %56 = ptrtoint ptr %55 to i64
  %57 = and i64 %56, 1
  %.not.i37 = icmp eq i64 %57, 0
  br i1 %.not.i37, label %58, label %65

58:                                               ; preds = %lean_ensure_exclusive_array.exit.i35
  %59 = load i32, ptr %55, align 4, !tbaa !8
  %60 = icmp sgt i32 %59, 1
  br i1 %60, label %61, label %63, !prof !11

61:                                               ; preds = %58
  %62 = add nsw i32 %59, -1
  store i32 %62, ptr %55, align 4, !tbaa !8
  br label %65

63:                                               ; preds = %58
  %.not.i.i38 = icmp eq i32 %59, 0
  br i1 %.not.i.i38, label %65, label %64

64:                                               ; preds = %63
  tail call void @lean_dec_ref_cold(ptr noundef nonnull %55) #4
  br label %65

65:                                               ; preds = %64, %63, %61, %lean_ensure_exclusive_array.exit.i35
  store ptr %39, ptr %54, align 8, !tbaa !4
  %exitcond.not = icmp eq i64 %49, %1
  br i1 %exitcond.not, label %._crit_edge, label %.lr.ph

._crit_edge:                                      ; preds = %65, %4
  %.024.lcssa = phi ptr [ %3, %4 ], [ %.0.i.i36, %65 ]
  ret ptr %.024.lcssa
}